target datalayout = "e-m:e-p270:32:32-p271:32:32-p272:64:64-i64:64-i128:128-f80:128-n8:16:32:64-S128"
target triple = "x86_64-pc-linux-gnu"

%struct.ObjectAddress = type { i32, i32, i32 }
%struct.ShDependObjectInfo = type { %struct.ObjectAddress, i8, i32 }

; Function Attrs: nounwind uwtable
define internal i32 @shared_dependency_comparator(ptr noundef %0, ptr noundef %1) #0 {
  %3 = alloca i32, align 4
  %4 = alloca ptr, align 8
  %5 = alloca ptr, align 8
  %6 = alloca ptr, align 8
  %7 = alloca ptr, align 8
  %8 = alloca i32, align 4
  store ptr %0, ptr %4, align 8
  store ptr %1, ptr %5, align 8
  call void @llvm.lifetime.start.p0(i64 8, ptr %6) #7
  %9 = load ptr, ptr %4, align 8
  store ptr %9, ptr %6, align 8
  call void @llvm.lifetime.start.p0(i64 8, ptr %7) #7
  %10 = load ptr, ptr %5, align 8
  store ptr %10, ptr %7, align 8
  %11 = load ptr, ptr %6, align 8
  %12 = getelementptr inbounds nuw %struct.ShDependObjectInfo, ptr %11, i32 0, i32 0
  %13 = getelementptr inbounds nuw %struct.ObjectAddress, ptr %12, i32 0, i32 1
  %14 = load i32, ptr %13, align 4
  %15 = load ptr, ptr %7, align 8
  %16 = getelementptr inbounds nuw %struct.ShDependObjectInfo, ptr %15, i32 0, i32 0
  %17 = getelementptr inbounds nuw %struct.ObjectAddress, ptr %16, i32 0, i32 1
  %18 = load i32, ptr %17, align 4
  %19 = icmp ult i32 %14, %18
  br i1 %19, label %20, label %21

20:                                               ; preds = %2
  store i32 -1, ptr %3, align 4
  store i32 1, ptr %8, align 4
  br label %99

21:                                               ; preds = %2
  %22 = load ptr, ptr %6, align 8
  %23 = getelementptr inbounds nuw %struct.ShDependObjectInfo, ptr %22, i32 0, i32 0
  %24 = getelementptr inbounds nuw %struct.ObjectAddress, ptr %23, i32 0, i32 1
  %25 = load i32, ptr %24, align 4
  %26 = load ptr, ptr %7, align 8
  %27 = getelementptr inbounds nuw %struct.ShDependObjectInfo, ptr %26, i32 0, i32 0
  %28 = getelementptr inbounds nuw %struct.ObjectAddress, ptr %27, i32 0, i32 1
  %29 = load i32, ptr %28, align 4
  %30 = icmp ugt i32 %25, %29
  br i1 %30, label %31, label %32

31:                                               ; preds = %21
  store i32 1, ptr %3, align 4
  store i32 1, ptr %8, align 4
  br label %99

32:                                               ; preds = %21
  %33 = load ptr, ptr %6, align 8
  %34 = getelementptr inbounds nuw %struct.ShDependObjectInfo, ptr %33, i32 0, i32 0
  %35 = getelementptr inbounds nuw %struct.ObjectAddress, ptr %34, i32 0, i32 0
  %36 = load i32, ptr %35, align 4
  %37 = load ptr, ptr %7, align 8
  %38 = getelementptr inbounds nuw %struct.ShDependObjectInfo, ptr %37, i32 0, i32 0
  %39 = getelementptr inbounds nuw %struct.ObjectAddress, ptr %38, i32 0, i32 0
  %40 = load i32, ptr %39, align 4
  %41 = icmp ult i32 %36, %40
  br i1 %41, label %42, label %43

42:                                               ; preds = %32
  store i32 -1, ptr %3, align 4
  store i32 1, ptr %8, align 4
  br label %99

43:                                               ; preds = %32
  %44 = load ptr, ptr %6, align 8
  %45 = getelementptr inbounds nuw %struct.ShDependObjectInfo, ptr %44, i32 0, i32 0
  %46 = getelementptr inbounds nuw %struct.ObjectAddress, ptr %45, i32 0, i32 0
  %47 = load i32, ptr %46, align 4
  %48 = load ptr, ptr %7, align 8
  %49 = getelementptr inbounds nuw %struct.ShDependObjectInfo, ptr %48, i32 0, i32 0
  %50 = getelementptr inbounds nuw %struct.ObjectAddress, ptr %49, i32 0, i32 0
  %51 = load i32, ptr %50, align 4
  %52 = icmp ugt i32 %47, %51
  br i1 %52, label %53, label %54

53:                                               ; preds = %43
  store i32 1, ptr %3, align 4
  store i32 1, ptr %8, align 4
  br label %99

54:                                               ; preds = %43
  %55 = load ptr, ptr %6, align 8
  %56 = getelementptr inbounds nuw %struct.ShDependObjectInfo, ptr %55, i32 0, i32 0
  %57 = getelementptr inbounds nuw %struct.ObjectAddress, ptr %56, i32 0, i32 2
  %58 = load i32, ptr %57, align 4
  %59 = load ptr, ptr %7, align 8
  %60 = getelementptr inbounds nuw %struct.ShDependObjectInfo, ptr %59, i32 0, i32 0
  %61 = getelementptr inbounds nuw %struct.ObjectAddress, ptr %60, i32 0, i32 2
  %62 = load i32, ptr %61, align 4
  %63 = icmp ult i32 %58, %62
  br i1 %63, label %64, label %65

64:                                               ; preds = %54
  store i32 -1, ptr %3, align 4
  store i32 1, ptr %8, align 4
  br label %99

65:                                               ; preds = %54
  %66 = load ptr, ptr %6, align 8
  %67 = getelementptr inbounds nuw %struct.ShDependObjectInfo, ptr %66, i32 0, i32 0
  %68 = getelementptr inbounds nuw %struct.ObjectAddress, ptr %67, i32 0, i32 2
  %69 = load i32, ptr %68, align 4
  %70 = load ptr, ptr %7, align 8
  %71 = getelementptr inbounds nuw %struct.ShDependObjectInfo, ptr %70, i32 0, i32 0
  %72 = getelementptr inbounds nuw %struct.ObjectAddress, ptr %71, i32 0, i32 2
  %73 = load i32, ptr %72, align 4
  %74 = icmp ugt i32 %69, %73
  br i1 %74, label %75, label %76

75:                                               ; preds = %65
  store i32 1, ptr %3, align 4
  store i32 1, ptr %8, align 4
  br label %99

76:                                               ; preds = %65
  %77 = load ptr, ptr %6, align 8
  %78 = getelementptr inbounds nuw %struct.ShDependObjectInfo, ptr %77, i32 0, i32 1
  %79 = load i8, ptr %78, align 4
  %80 = sext i8 %79 to i32
  %81 = load ptr, ptr %7, align 8
  %82 = getelementptr inbounds nuw %struct.ShDependObjectInfo, ptr %81, i32 0, i32 1
  %83 = load i8, ptr %82, align 4
  %84 = sext i8 %83 to i32
  %85 = icmp slt i32 %80, %84
  br i1 %85, label %86, label %87

86:                                               ; preds = %76
  store i32 -1, ptr %3, align 4
  store i32 1, ptr %8, align 4
  br label %99

87:                                               ; preds = %76
  %88 = load ptr, ptr %6, align 8
  %89 = getelementptr inbounds nuw %struct.ShDependObjectInfo, ptr %88, i32 0, i32 1
  %90 = load i8, ptr %89, align 4
  %91 = sext i8 %90 to i32
  %92 = load ptr, ptr %7, align 8
  %93 = getelementptr inbounds nuw %struct.ShDependObjectInfo, ptr %92, i32 0, i32 1
  %94 = load i8, ptr %93, align 4
  %95 = sext i8 %94 to i32
  %96 = icmp sgt i32 %91, %95
  br i1 %96, label %97, label %98

97:                                               ; preds = %87
  store i32 1, ptr %3, align 4
  store i32 1, ptr %8, align 4
  br label %99

98:                                               ; preds = %87
  store i32 0, ptr %3, align 4
  store i32 1, ptr %8, align 4
  br label %99

99:                                               ; preds = %98, %97, %86, %75, %64, %53, %42, %31, %20
  call void @llvm.lifetime.end.p0(i64 8, ptr %7) #7
  call void @llvm.lifetime.end.p0(i64 8, ptr %6) #7
  %100 = load i32, ptr %3, align 4
  ret i32 %100
}