; Function Attrs: mustprogress nofree norecurse nosync nounwind willreturn memory(argmem: read) uwtable
define internal range(i32 -1, 2) i32 @shared_dependency_comparator(ptr noundef readonly captures(none) %0, ptr noundef readonly captures(none) %1) #6 {
  %3 = getelementptr inbounds nuw i8, ptr %0, i64 4
  %4 = load i32, ptr %3, align 4
  %5 = getelementptr inbounds nuw i8, ptr %1, i64 4
  %6 = load i32, ptr %5, align 4
  %7 = icmp ult i32 %4, %6
  br i1 %7, label %32, label %8

8:                                                ; preds = %2
  %9 = icmp ugt i32 %4, %6
  br i1 %9, label %32, label %10

10:                                               ; preds = %8
  %11 = load i32, ptr %0, align 4
  %12 = load i32, ptr %1, align 4
  %13 = icmp ult i32 %11, %12
  br i1 %13, label %32, label %14

14:                                               ; preds = %10
  %15 = icmp ugt i32 %11, %12
  br i1 %15, label %32, label %16

16:                                               ; preds = %14
  %17 = getelementptr inbounds nuw i8, ptr %0, i64 8
  %18 = load i32, ptr %17, align 4
  %19 = getelementptr inbounds nuw i8, ptr %1, i64 8
  %20 = load i32, ptr %19, align 4
  %21 = icmp ult i32 %18, %20
  br i1 %21, label %32, label %22

22:                                               ; preds = %16
  %23 = icmp ugt i32 %18, %20
  br i1 %23, label %32, label %24

24:                                               ; preds = %22
  %25 = getelementptr inbounds nuw i8, ptr %0, i64 12
  %26 = load i8, ptr %25, align 4
  %27 = getelementptr inbounds nuw i8, ptr %1, i64 12
  %28 = load i8, ptr %27, align 4
  %29 = icmp slt i8 %26, %28
  br i1 %29, label %32, label %30

30:                                               ; preds = %24
  %31 = icmp sgt i8 %26, %28
  %. = zext i1 %31 to i32
  br label %32

32:                                               ; preds = %30, %24, %22, %16, %14, %10, %8, %2
  %.0 = phi i32 [ -1, %2 ], [ 1, %8 ], [ -1, %10 ], [ 1, %14 ], [ -1, %16 ], [ 1, %22 ], [ -1, %24 ], [ %., %30 ]
  ret i32 %.0
}